target datalayout = "e-m:e-p270:32:32-p271:32:32-p272:64:64-i64:64-i128:128-f80:128-n8:16:32:64-S128"
target triple = "x86_64-pc-linux-gnu"

%struct._object = type { %union.anon, ptr }
%union.anon = type { i64 }
%struct.PyDictObject = type { %struct._object, i64, i64, ptr, ptr }
%struct.lru_cache_object = type { %struct.lru_list_elem, ptr, i32, ptr, i64, ptr, i64, i64, ptr, ptr, ptr, ptr, ptr }
%struct.lru_list_elem = type { %struct._object, ptr, ptr, i64, ptr, ptr }

@_Py_NoneStruct = external global %struct._object, align 8
@.str.54 = private unnamed_addr constant [5 x i8] c"nnOn\00", align 1
@.str.55 = private unnamed_addr constant [5 x i8] c"nnnn\00", align 1

; Function Attrs: inlinehint nounwind uwtable
define internal i64 @PyDict_GET_SIZE(ptr noundef %0) #3 {
  %2 = alloca ptr, align 8
  %3 = alloca ptr, align 8
  store ptr %0, ptr %2, align 8, !tbaa !4
  call void @llvm.lifetime.start.p0(i64 8, ptr %3) #8
  %4 = load ptr, ptr %2, align 8, !tbaa !4
  store ptr %4, ptr %3, align 8, !tbaa !9
  %5 = load ptr, ptr %3, align 8, !tbaa !9
  %6 = getelementptr inbounds nuw %struct.PyDictObject, ptr %5, i32 0, i32 1
  %7 = load i64, ptr %6, align 8, !tbaa !132
  call void @llvm.lifetime.end.p0(i64 8, ptr %3) #8
  ret i64 %7
}

; Function Attrs: nounwind uwtable
define internal ptr @_functools__lru_cache_wrapper_cache_info_impl(ptr noundef %0) #0 {
  %2 = alloca ptr, align 8
  %3 = alloca ptr, align 8
  %4 = alloca ptr, align 8
  %5 = alloca i32, align 4
  store ptr %0, ptr %3, align 8, !tbaa !4
  call void @llvm.lifetime.start.p0(i64 8, ptr %4) #8
  %6 = load ptr, ptr %3, align 8, !tbaa !4
  store ptr %6, ptr %4, align 8, !tbaa !155
  %7 = load ptr, ptr %4, align 8, !tbaa !155
  %8 = getelementptr inbounds nuw %struct.lru_cache_object, ptr %7, i32 0, i32 6
  %9 = load i64, ptr %8, align 8, !tbaa !178
  %10 = icmp eq i64 %9, -1
  br i1 %10, label %11, label %26

11:                                               ; preds = %1
  %12 = load ptr, ptr %4, align 8, !tbaa !155
  %13 = getelementptr inbounds nuw %struct.lru_cache_object, ptr %12, i32 0, i32 10
  %14 = load ptr, ptr %13, align 8, !tbaa !172
  %15 = load ptr, ptr %4, align 8, !tbaa !155
  %16 = getelementptr inbounds nuw %struct.lru_cache_object, ptr %15, i32 0, i32 4
  %17 = load i64, ptr %16, align 8, !tbaa !176
  %18 = load ptr, ptr %4, align 8, !tbaa !155
  %19 = getelementptr inbounds nuw %struct.lru_cache_object, ptr %18, i32 0, i32 7
  %20 = load i64, ptr %19, align 8, !tbaa !177
  %21 = load ptr, ptr %4, align 8, !tbaa !155
  %22 = getelementptr inbounds nuw %struct.lru_cache_object, ptr %21, i32 0, i32 3
  %23 = load ptr, ptr %22, align 8, !tbaa !168
  %24 = call i64 @PyDict_GET_SIZE(ptr noundef %23)
  %25 = call ptr (ptr, ptr, ...) @PyObject_CallFunction(ptr noundef %14, ptr noundef @.str.54, i64 noundef %17, i64 noundef %20, ptr noundef @_Py_NoneStruct, i64 noundef %24)
  store ptr %25, ptr %2, align 8
  store i32 1, ptr %5, align 4
  br label %44

26:                                               ; preds = %1
  %27 = load ptr, ptr %4, align 8, !tbaa !155
  %28 = getelementptr inbounds nuw %struct.lru_cache_object, ptr %27, i32 0, i32 10
  %29 = load ptr, ptr %28, align 8, !tbaa !172
  %30 = load ptr, ptr %4, align 8, !tbaa !155
  %31 = getelementptr inbounds nuw %struct.lru_cache_object, ptr %30, i32 0, i32 4
  %32 = load i64, ptr %31, align 8, !tbaa !176
  %33 = load ptr, ptr %4, align 8, !tbaa !155
  %34 = getelementptr inbounds nuw %struct.lru_cache_object, ptr %33, i32 0, i32 7
  %35 = load i64, ptr %34, align 8, !tbaa !177
  %36 = load ptr, ptr %4, align 8, !tbaa !155
  %37 = getelementptr inbounds nuw %struct.lru_cache_object, ptr %36, i32 0, i32 6
  %38 = load i64, ptr %37, align 8, !tbaa !178
  %39 = load ptr, ptr %4, align 8, !tbaa !155
  %40 = getelementptr inbounds nuw %struct.lru_cache_object, ptr %39, i32 0, i32 3
  %41 = load ptr, ptr %40, align 8, !tbaa !168
  %42 = call i64 @PyDict_GET_SIZE(ptr noundef %41)
  %43 = call ptr (ptr, ptr, ...) @PyObject_CallFunction(ptr noundef %29, ptr noundef @.str.55, i64 noundef %32, i64 noundef %35, i64 noundef %38, i64 noundef %42)
  store ptr %43, ptr %2, align 8
  store i32 1, ptr %5, align 4
  br label %44

44:                                               ; preds = %26, %11
  call void @llvm.lifetime.end.p0(i64 8, ptr %4) #8
  %45 = load ptr, ptr %2, align 8
  ret ptr %45
}

; Function Attrs: nounwind uwtable
define internal ptr @_functools__lru_cache_wrapper_cache_info(ptr noundef %0, ptr noundef %1) #0 {
  %3 = alloca ptr, align 8
  %4 = alloca ptr, align 8
  %5 = alloca ptr, align 8
  store ptr %0, ptr %3, align 8, !tbaa !4
  store ptr %1, ptr %4, align 8, !tbaa !4
  call void @llvm.lifetime.start.p0(i64 8, ptr %5) #8
  store ptr null, ptr %5, align 8, !tbaa !4
  %6 = load ptr, ptr %3, align 8, !tbaa !4
  %7 = call ptr @_functools__lru_cache_wrapper_cache_info_impl(ptr noundef %6)
  store ptr %7, ptr %5, align 8, !tbaa !4
  %8 = load ptr, ptr %5, align 8, !tbaa !4
  call void @llvm.lifetime.end.p0(i64 8, ptr %5) #8
  ret ptr %8
}