; Function Attrs: nounwind uwtable
define internal ptr @_functools__lru_cache_wrapper_cache_info(ptr noundef readonly captures(none) %0, ptr readnone captures(none) %1) #0 {
  %3 = getelementptr inbounds nuw i8, ptr %0, i64 96
  %4 = load i64, ptr %3, align 8, !tbaa !169
  %5 = icmp eq i64 %4, -1
  %6 = getelementptr inbounds nuw i8, ptr %0, i64 128
  %7 = load ptr, ptr %6, align 8, !tbaa !160
  %8 = getelementptr inbounds nuw i8, ptr %0, i64 80
  %9 = load i64, ptr %8, align 8, !tbaa !167
  %10 = getelementptr inbounds nuw i8, ptr %0, i64 104
  %11 = load i64, ptr %10, align 8, !tbaa !168
  %12 = getelementptr inbounds nuw i8, ptr %0, i64 72
  %13 = load ptr, ptr %12, align 8, !tbaa !156
  %14 = getelementptr i8, ptr %13, i64 16
  %.val13.i = load i64, ptr %14, align 8, !tbaa !122
  br i1 %5, label %15, label %17

15:                                               ; preds = %2
  %16 = tail call ptr (ptr, ptr, ...) @PyObject_CallFunction(ptr noundef %7, ptr noundef nonnull @.str.54, i64 noundef %9, i64 noundef %11, ptr noundef nonnull @_Py_NoneStruct, i64 noundef %.val13.i) #9
  br label %_functools__lru_cache_wrapper_cache_info_impl.exit

17:                                               ; preds = %2
  %18 = tail call ptr (ptr, ptr, ...) @PyObject_CallFunction(ptr noundef %7, ptr noundef nonnull @.str.55, i64 noundef %9, i64 noundef %11, i64 noundef %4, i64 noundef %.val13.i) #9
  br label %_functools__lru_cache_wrapper_cache_info_impl.exit

_functools__lru_cache_wrapper_cache_info_impl.exit: ; preds = %15, %17
  %.0.i = phi ptr [ %16, %15 ], [ %18, %17 ]
  ret ptr %.0.i
}